Certificate:
    Data:
        Version: 3 (0x2)
        Serial Number:
            46:35:39:75:5e:36:40:4c:a9:45:fb:6c:8b:4d:fb:69:04:7d:aa:b8
        Signature Algorithm: sha256WithRSAEncryption
        Issuer: C=FR, ST=Alpes-Maritimes, L=Nice, O=RISF, OU=RISF Root CA
        Validity
            Not Before: Mar 10 16:32:37 2025 GMT
            Not After : Mar 10 16:32:37 2035 GMT
        Subject: C=FR, ST=Alpes-Maritimes, L=Nice, O=RISF, OU=RISF Signing CA
        Subject Public Key Info:
            Public Key Algorithm: rsaEncryption
                Public-Key: (2048 bit)
                Modulus:
                    00:ee:12:8f:e2:53:0f:7b:d8:d9:35:e6:fe:08:78:
                    c1:37:58:a5:ac:75:73:55:8f:5a:0e:7a:29:5c:d9:
                    40:32:d4:6c:24:ca:88:4f:7b:8e:86:e4:ac:10:f8:
                    d0:83:53:21:03:03:0e:e7:46:a1:48:10:b2:3e:f3:
                    b7:29:14:3c:7a:35:cb:4c:ee:fc:05:37:da:7e:5a:
                    5c:79:57:cc:7d:69:60:68:26:82:ef:bb:72:9d:46:
                    c5:2c:80:ac:c4:53:ac:09:75:2c:42:30:ce:6c:c4:
                    f8:35:37:fd:ae:f4:68:79:2d:1a:8e:21:22:09:90:
                    1d:fe:a3:ac:c0:db:a3:ab:ea:a4:f3:9f:ec:33:8b:
                    f9:b7:aa:0f:3a:1e:e9:b4:77:16:98:9d:c8:b0:2c:
                    68:91:67:af:ac:84:5d:4a:7f:f1:0b:a2:bf:6b:ed:
                    a1:36:2d:f0:7c:53:29:1e:56:ea:0a:a2:08:ba:5b:
                    30:8e:f9:51:23:dd:b7:b7:65:d9:73:f1:ba:a7:42:
                    54:96:d8:e3:30:dd:1f:d8:38:cd:29:52:7c:bc:cb:
                    bf:ae:b1:f3:c3:60:ba:36:52:30:22:86:2c:c1:42:
                    0f:70:21:d3:b1:e0:05:af:56:66:c5:37:35:f3:79:
                    42:34:7b:21:16:c0:de:a5:e2:9a:6e:f7:f8:e9:dc:
                    e9:b5
                Exponent: 65537 (0x10001)
        X509v3 extensions:
            X509v3 Key Usage: critical
                Certificate Sign, CRL Sign
            X509v3 Basic Constraints: critical
                CA:TRUE, pathlen:0
            X509v3 Subject Key Identifier: 
                AC:BC:69:49:05:7F:58:2F:04:35:1B:14:59:A7:EF:9C:16:36:DA:53
            X509v3 Authority Key Identifier: 
                39:6B:12:ED:A2:3B:D8:39:55:A2:E0:65:26:AE:D9:9F:02:30:A9:60
    Signature Algorithm: sha256WithRSAEncryption
    Signature Value:
        14:f1:6e:61:33:a1:33:02:a6:3c:21:03:66:c7:84:b4:29:2f:
        49:1c:c8:64:6e:9e:83:e1:22:9b:7b:f2:56:e9:c5:46:1b:c4:
        05:25:9f:97:a0:cf:d3:cc:52:18:fb:4d:85:09:8c:68:7e:3f:
        0e:52:7e:c8:4c:d7:03:46:3a:fb:d3:b4:2b:c2:2c:84:bc:20:
        79:81:00:44:9a:5c:1e:07:33:b8:fa:ab:4d:da:eb:fd:42:01:
        92:60:f7:cd:8e:99:6c:c7:b5:3d:e0:b3:e3:67:1d:63:33:0b:
        18:97:42:7f:e4:a5:4a:73:05:bd:62:63:44:96:ec:25:33:58:
        54:d2:2d:27:ce:7a:1c:a1:53:fe:c1:e5:22:07:5c:84:d4:e2:
        af:88:d1:d7:0d:a6:a5:49:67:a3:69:19:39:81:75:04:cf:51:
        05:7e:2b:54:b5:a8:3e:fb:7c:3e:75:79:9f:5a:d1:4b:bb:35:
        cc:80:b7:4a:cb:ea:86:c1:6c:e1:05:dc:b6:25:73:7a:0e:d1:
        75:f5:a5:2a:2d:a5:b3:bd:66:f4:96:04:62:91:1d:d1:5b:3f:
        73:87:7d:16:00:82:43:a4:9f:c4:85:d2:74:6f:76:56:19:cb:
        8f:0e:8b:02:01:c4:a9:99:95:f4:ec:c1:67:3b:f3:fa:bd:ec:
        fe:71:0e:fb
-----BEGIN CERTIFICATE-----
MIIDrzCCApegAwIBAgIURjU5dV42QEypRftsi037aQR9qrgwDQYJKoZIhvcNAQEL
BQAwXDELMAkGA1UEBhMCRlIxGDAWBgNVBAgMD0FscGVzLU1hcml0aW1lczENMAsG
A1UEBwwETmljZTENMAsGA1UECgwEUklTRjEVMBMGA1UECwwMUklTRiBSb290IENB
MB4XDTI1MDMxMDE2MzIzN1oXDTM1MDMxMDE2MzIzN1owXzELMAkGA1UEBhMCRlIx
GDAWBgNVBAgMD0FscGVzLU1hcml0aW1lczENMAsGA1UEBwwETmljZTENMAsGA1UE
CgwEUklTRjEYMBYGA1UECwwPUklTRiBTaWduaW5nIENBMIIBIjANBgkqhkiG9w0B
AQEFAAOCAQ8AMIIBCgKCAQEA7hKP4lMPe9jZNeb+CHjBN1ilrHVzVY9aDnopXNlA
MtRsJMqIT3uOhuSsEPjQg1MhAwMO50ahSBCyPvO3KRQ8ejXLTO78BTfaflpceVfM
fWlgaCaC77tynUbFLICsxFOsCXUsQjDObMT4NTf9rvRoeS0ajiEiCZAd/qOswNuj
q+qk85/sM4v5t6oPOh7ptHcWmJ3IsCxokWevrIRdSn/xC6K/a+2hNi3wfFMpHlbq
CqIIulswjvlRI923t2XZc/G6p0JUltjjMN0f2DjNKVJ8vMu/rrHzw2C6NlIwIoYs
wUIPcCHTseAFr1ZmxTc183lCNHshFsDepeKabvf46dzptQIDAQABo2YwZDAOBgNV
HQ8BAf8EBAMCAQYwEgYDVR0TAQH/BAgwBgEB/wIBADAdBgNVHQ4EFgQUrLxpSQV/
WC8ENRsUWafvnBY22lMwHwYDVR0jBBgwFoAUOWsS7aI72DlVouBlJq7ZnwIwqWAw
DQYJKoZIhvcNAQELBQADggEBABTxbmEzoTMCpjwhA2bHhLQpL0kcyGRunoPhIpt7
8lbpxUYbxAUln5egz9PMUhj7TYUJjGh+Pw5SfshM1wNGOvvTtCvCLIS8IHmBAESa
XB4HM7j6q03a6/1CAZJg982OmWzHtT3gs+NnHWMzCxiXQn/kpUpzBb1iY0SW7CUz
WFTSLSfOehyhU/7B5SIHXITU4q+I0dcNpqVJZ6NpGTmBdQTPUQV+K1S1qD77fD51
eZ9a0Uu7NcyAt0rL6obBbOEF3LYlc3oO0XX1pSotpbO9ZvSWBGKRHdFbP3OHfRYA
gkOkn8SF0nRvdlYZy48OiwIBxKmZlfTswWc78/q97P5xDvs=
-----END CERTIFICATE-----
