Certificate:
    Data:
        Version: 3 (0x2)
        Serial Number:
            0d:09:2a:3b:f1:bd:88:b5:6b:6b:96:af:b4:82:04:ae:50:fc:8f:f9
        Signature Algorithm: sha256WithRSAEncryption
        Issuer: C=FR, ST=Alpes-Maritimes, L=Nice, O=RISF, OU=RISF Signing CA
        Validity
            Not Before: Mar 10 16:33:46 2025 GMT
            Not After : Mar 10 16:33:46 2027 GMT
        Subject: C=FR, ST=Alpes-Maritimes, L=Nice, O=RISF
        Subject Public Key Info:
            Public Key Algorithm: rsaEncryption
                Public-Key: (2048 bit)
                Modulus:
                    00:a6:a9:54:91:10:8b:78:cd:7e:5d:15:b5:0d:35:
                    bd:fc:d0:31:ee:20:67:e0:93:7e:2b:b3:98:69:4b:
                    94:67:4b:bf:80:29:a7:8f:af:11:e2:91:e9:04:fb:
                    bd:b7:d1:5d:22:02:a1:e3:87:43:7c:01:e2:b6:dc:
                    d6:04:78:07:56:58:8d:ba:05:c6:28:93:4a:79:2e:
                    75:fe:06:f8:9b:4a:c9:03:d8:36:8a:e1:c3:c0:ca:
                    2e:c5:13:13:04:60:65:e3:f2:c9:34:0a:35:6f:88:
                    87:74:69:aa:7a:f6:5c:4e:bf:20:37:51:49:b4:fe:
                    2a:73:05:88:4c:c7:e5:ea:81:60:e4:f7:bc:29:6c:
                    40:6f:25:03:d7:94:20:b2:95:3f:3c:30:43:2b:e5:
                    3f:ad:70:66:93:32:a9:d4:21:15:fe:4e:88:59:d7:
                    43:f4:8d:d1:cd:3c:23:d2:06:5b:83:39:b1:48:11:
                    0a:8a:de:36:a8:db:2e:d5:4a:7d:88:28:4a:a5:80:
                    47:40:f9:eb:3d:bd:17:ba:ac:b1:f9:fc:a5:f8:1f:
                    51:f3:a9:1d:a4:88:dc:fc:18:0f:b6:7b:cc:84:53:
                    99:90:ff:e9:60:f2:c0:02:16:6e:10:04:0c:37:2b:
                    91:b8:3d:51:c2:2a:df:cc:70:d8:74:3a:b1:af:2e:
                    7f:6b
                Exponent: 65537 (0x10001)
        X509v3 extensions:
            X509v3 Key Usage: critical
                Digital Signature, Key Encipherment
            X509v3 Basic Constraints: 
                CA:FALSE
            X509v3 Extended Key Usage: 
                TLS Web Server Authentication, TLS Web Client Authentication
            X509v3 Subject Key Identifier: 
                06:87:D8:1B:BB:D7:89:1F:E7:DB:52:77:56:41:6E:07:5B:50:A7:65
            X509v3 Authority Key Identifier: 
                AC:BC:69:49:05:7F:58:2F:04:35:1B:14:59:A7:EF:9C:16:36:DA:53
            X509v3 Subject Alternative Name: 
                DNS:hello-risf.local.domain
    Signature Algorithm: sha256WithRSAEncryption
    Signature Value:
        2c:0b:5b:29:18:43:bf:c8:54:ee:3f:29:60:5a:fa:a4:3c:ff:
        41:17:32:51:a9:0e:35:e4:c5:0b:f2:95:21:41:10:28:4a:03:
        90:85:c2:e9:c5:27:72:86:bd:34:69:fb:83:70:94:c3:98:04:
        8a:b4:0c:a6:7d:1e:d9:bb:ba:f7:0b:4d:b2:f2:d3:48:27:39:
        61:19:ff:62:b0:50:1a:aa:ba:4b:fb:ec:26:48:fa:83:69:40:
        ff:e2:d8:c5:77:b1:dc:8a:6d:80:b2:03:bf:30:5e:47:bf:aa:
        43:13:46:73:d1:e3:4c:d7:c5:a8:03:2f:87:f1:98:d4:93:ec:
        77:89:ad:2c:e2:27:a2:c3:46:7c:43:d5:b3:a2:c4:2d:2b:27:
        99:cf:eb:53:ce:6e:bb:7b:2a:91:54:45:e0:81:1c:89:03:26:
        03:6d:91:4a:8a:25:ae:0d:2c:25:70:dd:86:bd:88:f3:8a:1d:
        6d:74:96:9a:65:86:47:8c:82:c4:26:5a:fe:f3:b6:39:b6:3c:
        12:5b:0d:15:90:0a:b7:9c:a4:cf:c5:5f:38:b9:8b:1a:c6:70:
        df:98:03:fe:ee:35:8a:cf:8d:0c:69:da:81:e1:a3:6e:a9:73:
        bd:4e:87:1b:06:8b:0a:be:ab:e0:bc:05:08:55:0b:5f:b0:12:
        7f:69:bb:08
-----BEGIN CERTIFICATE-----
MIID1DCCArygAwIBAgIUDQkqO/G9iLVra5avtIIErlD8j/kwDQYJKoZIhvcNAQEL
BQAwXzELMAkGA1UEBhMCRlIxGDAWBgNVBAgMD0FscGVzLU1hcml0aW1lczENMAsG
A1UEBwwETmljZTENMAsGA1UECgwEUklTRjEYMBYGA1UECwwPUklTRiBTaWduaW5n
IENBMB4XDTI1MDMxMDE2MzM0NloXDTI3MDMxMDE2MzM0NlowRTELMAkGA1UEBhMC
RlIxGDAWBgNVBAgMD0FscGVzLU1hcml0aW1lczENMAsGA1UEBwwETmljZTENMAsG
A1UECgwEUklTRjCCASIwDQYJKoZIhvcNAQEBBQADggEPADCCAQoCggEBAKapVJEQ
i3jNfl0VtQ01vfzQMe4gZ+CTfiuzmGlLlGdLv4App4+vEeKR6QT7vbfRXSICoeOH
Q3wB4rbc1gR4B1ZYjboFxiiTSnkudf4G+JtKyQPYNorhw8DKLsUTEwRgZePyyTQK
NW+Ih3Rpqnr2XE6/IDdRSbT+KnMFiEzH5eqBYOT3vClsQG8lA9eUILKVPzwwQyvl
P61wZpMyqdQhFf5OiFnXQ/SN0c08I9IGW4M5sUgRCoreNqjbLtVKfYgoSqWAR0D5
6z29F7qssfn8pfgfUfOpHaSI3PwYD7Z7zIRTmZD/6WDywAIWbhAEDDcrkbg9UcIq
38xw2HQ6sa8uf2sCAwEAAaOBoTCBnjAOBgNVHQ8BAf8EBAMCBaAwCQYDVR0TBAIw
ADAdBgNVHSUEFjAUBggrBgEFBQcDAQYIKwYBBQUHAwIwHQYDVR0OBBYEFAaH2Bu7
14kf59tSd1ZBbgdbUKdlMB8GA1UdIwQYMBaAFKy8aUkFf1gvBDUbFFmn75wWNtpT
MCIGA1UdEQQbMBmCF2hlbGxvLXJpc2YubG9jYWwuZG9tYWluMA0GCSqGSIb3DQEB
CwUAA4IBAQAsC1spGEO/yFTuPylgWvqkPP9BFzJRqQ415MUL8pUhQRAoSgOQhcLp
xSdyhr00afuDcJTDmASKtAymfR7Zu7r3C02y8tNIJzlhGf9isFAaqrpL++wmSPqD
aUD/4tjFd7Hcim2AsgO/MF5Hv6pDE0Zz0eNM18WoAy+H8ZjUk+x3ia0s4ieiw0Z8
Q9WzosQtKyeZz+tTzm67eyqRVEXggRyJAyYDbZFKiiWuDSwlcN2GvYjzih1tdJaa
ZYZHjILEJlr+87Y5tjwSWw0VkAq3nKTPxV84uYsaxnDfmAP+7jWKz40MadqB4aNu
qXO9TocbBosKvqvgvAUIVQtfsBJ/absI
-----END CERTIFICATE-----
