Certificate:
    Data:
        Version: 3 (0x2)
        Serial Number:
            2e:0d:45:1a:e5:8f:d2:bb:92:2e:b8:b9:25:fd:f5:02:50:84:5a:46
        Signature Algorithm: sha256WithRSAEncryption
        Issuer: C=FR, ST=Alpes-Maritimes, L=Nice, O=RISF, OU=RISF Signing CA
        Validity
            Not Before: Mar 10 16:34:08 2025 GMT
            Not After : Mar 10 16:34:08 2027 GMT
        Subject: C=FR, ST=Alpes-Maritimes, L=Nice, O=RISF
        Subject Public Key Info:
            Public Key Algorithm: rsaEncryption
                Public-Key: (2048 bit)
                Modulus:
                    00:bd:12:f3:5b:a3:b1:27:8d:8c:b8:d8:f4:c2:51:
                    d2:7a:4f:9a:0f:f8:54:88:d7:b1:f0:41:ac:e2:f6:
                    29:8c:25:7e:68:ec:ee:9b:a9:6b:e3:bc:0e:c3:ce:
                    86:7b:28:aa:b5:0a:0e:fc:e5:61:17:a4:e4:d0:52:
                    2a:fd:eb:6d:6e:85:b0:25:f4:08:58:63:b0:fa:94:
                    b2:40:47:a0:f1:20:dc:64:35:25:fc:64:bd:51:17:
                    dd:b4:e2:16:d9:8a:42:3c:5e:8e:b4:bd:7d:ad:9a:
                    22:31:23:f5:f6:eb:ee:04:7e:36:9d:f6:bd:65:ee:
                    a6:2c:dd:09:47:58:81:7d:f0:dd:d0:4d:d6:99:67:
                    9d:95:ab:83:a3:c0:6a:a0:f2:30:f6:c4:14:11:58:
                    ba:30:bb:bb:b6:83:ef:c6:ea:d4:b4:28:5b:b1:5b:
                    93:e0:d5:75:95:bc:c7:fa:98:0e:7c:84:0a:ba:ce:
                    2b:64:20:43:66:45:1c:40:be:fe:c1:79:c9:96:bc:
                    be:b5:d3:0f:bb:ee:0a:d2:a7:cb:dd:fc:f8:91:58:
                    00:20:8c:5e:8c:01:d1:ea:d4:bf:5c:67:58:08:e1:
                    05:1e:cc:1f:28:70:3a:0e:4b:97:e7:6e:d0:64:50:
                    d3:fa:67:40:fe:35:27:aa:a1:ba:aa:d4:6f:d5:c9:
                    7a:53
                Exponent: 65537 (0x10001)
        X509v3 extensions:
            X509v3 Key Usage: critical
                Digital Signature, Key Encipherment
            X509v3 Basic Constraints: 
                CA:FALSE
            X509v3 Extended Key Usage: 
                TLS Web Server Authentication, TLS Web Client Authentication
            X509v3 Subject Key Identifier: 
                BD:49:EB:63:04:69:E8:FA:52:5C:7C:A7:41:CA:1C:EA:A4:30:02:71
            X509v3 Authority Key Identifier: 
                AC:BC:69:49:05:7F:58:2F:04:35:1B:14:59:A7:EF:9C:16:36:DA:53
            X509v3 Subject Alternative Name: 
                DNS:hello-itsf.local.domain
    Signature Algorithm: sha256WithRSAEncryption
    Signature Value:
        7b:ab:00:43:e3:4c:04:cc:0f:e8:d7:d9:58:d4:d3:5a:31:80:
        93:1a:9f:1b:1f:e9:87:a0:75:5e:ba:9e:b0:e8:75:fe:d1:e5:
        f2:01:5b:1d:5d:5e:67:35:cf:27:4a:83:32:74:5c:4a:be:fd:
        cc:57:ed:74:ea:f9:ed:54:da:1d:44:b4:ac:9a:63:15:4e:14:
        97:33:b2:37:9a:d5:f2:52:04:71:74:ed:a3:92:8d:7f:b6:68:
        c1:9b:eb:ac:9c:5e:48:58:bd:20:05:b6:a8:a4:3e:d5:90:7c:
        42:9f:59:2a:00:40:27:dd:13:a5:43:4d:2c:66:51:b0:bf:ee:
        8e:ec:0c:7e:4b:ee:85:30:d0:e0:a9:2b:3d:70:27:94:3d:aa:
        34:45:d8:5b:8c:40:9c:e3:d3:7d:cb:00:06:0b:88:3a:66:0c:
        e6:b8:19:6c:ae:df:10:87:59:3d:5b:46:68:ab:c0:58:81:96:
        36:87:25:4d:ab:e1:a9:a0:64:15:78:49:ec:bb:6e:69:1b:fb:
        55:b4:df:21:13:50:0e:2e:fa:5c:3c:e9:6a:2d:72:d5:f7:74:
        d0:17:5d:12:52:68:38:43:92:d1:ed:c5:fa:d1:d2:99:00:47:
        b3:28:b0:fa:bf:a6:95:5b:c5:d8:c6:4c:88:3d:f4:9b:55:c2:
        e7:11:8d:c6
-----BEGIN CERTIFICATE-----
MIID1DCCArygAwIBAgIULg1FGuWP0ruSLri5Jf31AlCEWkYwDQYJKoZIhvcNAQEL
BQAwXzELMAkGA1UEBhMCRlIxGDAWBgNVBAgMD0FscGVzLU1hcml0aW1lczENMAsG
A1UEBwwETmljZTENMAsGA1UECgwEUklTRjEYMBYGA1UECwwPUklTRiBTaWduaW5n
IENBMB4XDTI1MDMxMDE2MzQwOFoXDTI3MDMxMDE2MzQwOFowRTELMAkGA1UEBhMC
RlIxGDAWBgNVBAgMD0FscGVzLU1hcml0aW1lczENMAsGA1UEBwwETmljZTENMAsG
A1UECgwEUklTRjCCASIwDQYJKoZIhvcNAQEBBQADggEPADCCAQoCggEBAL0S81uj
sSeNjLjY9MJR0npPmg/4VIjXsfBBrOL2KYwlfmjs7pupa+O8DsPOhnsoqrUKDvzl
YRek5NBSKv3rbW6FsCX0CFhjsPqUskBHoPEg3GQ1JfxkvVEX3bTiFtmKQjxejrS9
fa2aIjEj9fbr7gR+Np32vWXupizdCUdYgX3w3dBN1plnnZWrg6PAaqDyMPbEFBFY
ujC7u7aD78bq1LQoW7Fbk+DVdZW8x/qYDnyECrrOK2QgQ2ZFHEC+/sF5yZa8vrXT
D7vuCtKny938+JFYACCMXowB0erUv1xnWAjhBR7MHyhwOg5Ll+du0GRQ0/pnQP41
J6qhuqrUb9XJelMCAwEAAaOBoTCBnjAOBgNVHQ8BAf8EBAMCBaAwCQYDVR0TBAIw
ADAdBgNVHSUEFjAUBggrBgEFBQcDAQYIKwYBBQUHAwIwHQYDVR0OBBYEFL1J62ME
aej6Ulx8p0HKHOqkMAJxMB8GA1UdIwQYMBaAFKy8aUkFf1gvBDUbFFmn75wWNtpT
MCIGA1UdEQQbMBmCF2hlbGxvLWl0c2YubG9jYWwuZG9tYWluMA0GCSqGSIb3DQEB
CwUAA4IBAQB7qwBD40wEzA/o19lY1NNaMYCTGp8bH+mHoHVeup6w6HX+0eXyAVsd
XV5nNc8nSoMydFxKvv3MV+106vntVNodRLSsmmMVThSXM7I3mtXyUgRxdO2jko1/
tmjBm+usnF5IWL0gBbaopD7VkHxCn1kqAEAn3ROlQ00sZlGwv+6O7Ax+S+6FMNDg
qSs9cCeUPao0RdhbjECc49N9ywAGC4g6ZgzmuBlsrt8Qh1k9W0Zoq8BYgZY2hyVN
q+GpoGQVeEnsu25pG/tVtN8hE1AOLvpcPOlqLXLV93TQF10SUmg4Q5LR7cX60dKZ
AEezKLD6v6aVW8XYxkyIPfSbVcLnEY3G
-----END CERTIFICATE-----
