Certificate:
    Data:
        Version: 3 (0x2)
        Serial Number:
            01:9a:c6:0a:52:ed:43:0f:32:5e:b2:c1:2b:8c:bd:ed:41:f2:84:bb
        Signature Algorithm: sha256WithRSAEncryption
        Issuer: C=FR, ST=Alpes-Maritimes, L=Nice, O=RISF, OU=RISF Root CA
        Validity
            Not Before: Mar 10 16:30:56 2025 GMT
            Not After : Mar 10 16:30:56 2035 GMT
        Subject: C=FR, ST=Alpes-Maritimes, L=Nice, O=RISF, OU=RISF Root CA
        Subject Public Key Info:
            Public Key Algorithm: rsaEncryption
                Public-Key: (2048 bit)
                Modulus:
                    00:b1:90:b3:0c:e7:b8:a9:34:95:dd:c8:80:7d:27:
                    f5:79:4a:f9:63:90:4a:ca:88:e9:ba:67:88:d1:7a:
                    36:b5:95:ec:c8:8c:0a:2f:ee:80:24:56:57:42:9b:
                    58:f2:33:cc:dd:80:7f:bf:9b:c2:57:d1:53:c9:bd:
                    39:fb:d0:f0:6e:62:14:ca:3d:7e:3a:79:42:fd:c8:
                    02:da:7f:b3:54:49:80:d6:e4:aa:42:04:71:ad:44:
                    f9:fa:30:15:66:16:58:aa:c4:7e:08:3b:98:2d:22:
                    93:0e:96:98:d9:e0:56:0b:f6:20:e0:cf:f0:fb:ee:
                    44:9d:66:0f:81:9e:0c:37:84:5b:f6:ff:29:dc:da:
                    24:f2:de:75:c4:9b:48:66:0d:9b:65:4d:e4:88:a2:
                    a7:2c:b5:46:fc:5b:93:75:e0:00:ea:bd:5b:46:b9:
                    19:6b:6d:5b:9c:44:61:3d:93:be:55:ec:9b:32:df:
                    73:c1:ae:06:56:cc:5c:f1:b5:f5:77:47:42:4f:38:
                    ca:1f:cb:e6:25:33:ec:81:76:13:db:27:d3:4a:bc:
                    9d:90:6f:07:8f:6d:b5:fa:c7:9f:09:6e:a8:df:a0:
                    72:ac:d1:eb:e5:4c:36:6d:07:ad:55:c4:92:17:36:
                    d6:e0:0c:0e:b8:fe:24:d7:1b:d5:59:13:02:3a:38:
                    f4:33
                Exponent: 65537 (0x10001)
        X509v3 extensions:
            X509v3 Key Usage: critical
                Certificate Sign, CRL Sign
            X509v3 Basic Constraints: critical
                CA:TRUE
            X509v3 Subject Key Identifier: 
                39:6B:12:ED:A2:3B:D8:39:55:A2:E0:65:26:AE:D9:9F:02:30:A9:60
            X509v3 Authority Key Identifier: 
                39:6B:12:ED:A2:3B:D8:39:55:A2:E0:65:26:AE:D9:9F:02:30:A9:60
    Signature Algorithm: sha256WithRSAEncryption
    Signature Value:
        96:e0:dd:ef:3b:ec:43:f1:c1:af:58:b1:c9:57:4f:f8:c4:fa:
        76:e9:01:ad:8c:0d:41:40:6a:78:91:dd:17:85:07:46:e8:e9:
        e9:18:94:c0:d1:48:93:6d:a4:ce:7d:c3:ed:45:c2:aa:a0:b0:
        fb:00:bc:d2:2e:fb:3c:95:ec:44:71:22:af:2d:52:5e:a4:2f:
        52:ee:5a:a5:1c:6a:06:e1:06:68:86:c1:c1:34:d4:4b:b7:e1:
        84:16:40:7e:e8:1f:00:22:81:bf:b1:e5:f5:d9:48:db:12:3b:
        f0:f1:55:a2:6c:7b:79:5a:db:b3:27:ea:5b:b7:41:5c:ab:17:
        61:0e:cd:3d:a6:cd:30:4e:13:3c:1f:24:9b:33:a5:45:b7:b1:
        f1:e9:c2:7b:09:d5:26:ad:f2:9c:5c:9c:26:fb:1e:2e:21:0c:
        57:f4:b5:b7:e3:ad:6c:1a:df:09:b7:87:8a:f5:b9:2a:74:03:
        ab:b0:fb:75:b7:75:9e:d5:6b:8a:af:4a:1f:b8:ee:ab:3a:97:
        2a:04:53:f1:90:b7:f1:1c:3a:80:c4:8d:76:69:56:5a:05:81:
        66:44:06:d0:f3:4e:48:85:78:31:f7:77:a8:c5:28:6e:2b:3e:
        f8:64:6a:fe:0f:b0:22:27:fa:ea:68:93:6d:bb:0c:17:9c:68:
        9b:52:9b:bc
-----BEGIN CERTIFICATE-----
MIIDqTCCApGgAwIBAgIUAZrGClLtQw8yXrLBK4y97UHyhLswDQYJKoZIhvcNAQEL
BQAwXDELMAkGA1UEBhMCRlIxGDAWBgNVBAgMD0FscGVzLU1hcml0aW1lczENMAsG
A1UEBwwETmljZTENMAsGA1UECgwEUklTRjEVMBMGA1UECwwMUklTRiBSb290IENB
MB4XDTI1MDMxMDE2MzA1NloXDTM1MDMxMDE2MzA1NlowXDELMAkGA1UEBhMCRlIx
GDAWBgNVBAgMD0FscGVzLU1hcml0aW1lczENMAsGA1UEBwwETmljZTENMAsGA1UE
CgwEUklTRjEVMBMGA1UECwwMUklTRiBSb290IENBMIIBIjANBgkqhkiG9w0BAQEF
AAOCAQ8AMIIBCgKCAQEAsZCzDOe4qTSV3ciAfSf1eUr5Y5BKyojpumeI0Xo2tZXs
yIwKL+6AJFZXQptY8jPM3YB/v5vCV9FTyb05+9DwbmIUyj1+OnlC/cgC2n+zVEmA
1uSqQgRxrUT5+jAVZhZYqsR+CDuYLSKTDpaY2eBWC/Yg4M/w++5EnWYPgZ4MN4Rb
9v8p3Nok8t51xJtIZg2bZU3kiKKnLLVG/FuTdeAA6r1bRrkZa21bnERhPZO+Veyb
Mt9zwa4GVsxc8bX1d0dCTzjKH8vmJTPsgXYT2yfTSrydkG8Hj221+sefCW6o36By
rNHr5Uw2bQetVcSSFzbW4AwOuP4k1xvVWRMCOjj0MwIDAQABo2MwYTAOBgNVHQ8B
Af8EBAMCAQYwDwYDVR0TAQH/BAUwAwEB/zAdBgNVHQ4EFgQUOWsS7aI72DlVouBl
Jq7ZnwIwqWAwHwYDVR0jBBgwFoAUOWsS7aI72DlVouBlJq7ZnwIwqWAwDQYJKoZI
hvcNAQELBQADggEBAJbg3e877EPxwa9YsclXT/jE+nbpAa2MDUFAaniR3ReFB0bo
6ekYlMDRSJNtpM59w+1FwqqgsPsAvNIu+zyV7ERxIq8tUl6kL1LuWqUcagbhBmiG
wcE01Eu34YQWQH7oHwAigb+x5fXZSNsSO/DxVaJse3la27Mn6lu3QVyrF2EOzT2m
zTBOEzwfJJszpUW3sfHpwnsJ1Sat8pxcnCb7Hi4hDFf0tbfjrWwa3wm3h4r1uSp0
A6uw+3W3dZ7Va4qvSh+47qs6lyoEU/GQt/EcOoDEjXZpVloFgWZEBtDzTkiFeDH3
d6jFKG4rPvhkav4PsCIn+upok227DBecaJtSm7w=
-----END CERTIFICATE-----
